target datalayout = "e-m:e-p270:32:32-p271:32:32-p272:64:64-i64:64-i128:128-f80:128-n8:16:32:64-S128"
target triple = "x86_64-pc-linux-gnu"

%struct._php_stream = type { ptr, ptr, %struct._php_stream_filter_chain, %struct._php_stream_filter_chain, ptr, ptr, %struct._zval_struct, i16, [16 x i8], i32, ptr, ptr, ptr, ptr, i64, ptr, i64, i64, i64, i64, ptr }
%struct._php_stream_filter_chain = type { ptr, ptr, ptr }
%struct._zval_struct = type { %union._zend_value, %union.anon, %union.anon.2 }
%union._zend_value = type { i64 }
%union.anon = type { i32 }
%union.anon.2 = type { i32 }
%struct.php_stream_memory_data = type { ptr, i64, i32 }
%struct._zend_string = type { %struct._zend_refcounted_h, i64, i64, [1 x i8] }
%struct._zend_refcounted_h = type { i32, %union.anon.3 }
%union.anon.3 = type { i32 }

; Function Attrs: nounwind uwtable
define internal i32 @php_stream_memory_seek(ptr noundef %0, i64 noundef %1, i32 noundef %2, ptr noundef %3) #0 {
  %5 = alloca i32, align 4
  %6 = alloca ptr, align 8
  %7 = alloca i64, align 8
  %8 = alloca i32, align 4
  %9 = alloca ptr, align 8
  %10 = alloca ptr, align 8
  store ptr %0, ptr %6, align 8
  store i64 %1, ptr %7, align 8
  store i32 %2, ptr %8, align 4
  store ptr %3, ptr %9, align 8
  %11 = load ptr, ptr %6, align 8
  %12 = getelementptr inbounds %struct._php_stream, ptr %11, i32 0, i32 1
  %13 = load ptr, ptr %12, align 8
  store ptr %13, ptr %10, align 8
  %14 = load i32, ptr %8, align 4
  switch i32 %14, label %137 [
    i32 1, label %15
    i32 0, label %63
    i32 2, label %83
  ]

15:                                               ; preds = %4
  %16 = load i64, ptr %7, align 8
  %17 = icmp slt i64 %16, 0
  br i1 %17, label %18, label %46

18:                                               ; preds = %15
  %19 = load ptr, ptr %10, align 8
  %20 = getelementptr inbounds %struct.php_stream_memory_data, ptr %19, i32 0, i32 1
  %21 = load i64, ptr %20, align 8
  %22 = load i64, ptr %7, align 8
  %23 = sub nsw i64 0, %22
  %24 = icmp ult i64 %21, %23
  br i1 %24, label %25, label %29

25:                                               ; preds = %18
  %26 = load ptr, ptr %10, align 8
  %27 = getelementptr inbounds %struct.php_stream_memory_data, ptr %26, i32 0, i32 1
  store i64 0, ptr %27, align 8
  %28 = load ptr, ptr %9, align 8
  store i64 -1, ptr %28, align 8
  store i32 -1, ptr %5, align 4
  br label %142

29:                                               ; preds = %18
  %30 = load ptr, ptr %10, align 8
  %31 = getelementptr inbounds %struct.php_stream_memory_data, ptr %30, i32 0, i32 1
  %32 = load i64, ptr %31, align 8
  %33 = load i64, ptr %7, align 8
  %34 = add i64 %32, %33
  %35 = load ptr, ptr %10, align 8
  %36 = getelementptr inbounds %struct.php_stream_memory_data, ptr %35, i32 0, i32 1
  store i64 %34, ptr %36, align 8
  %37 = load ptr, ptr %10, align 8
  %38 = getelementptr inbounds %struct.php_stream_memory_data, ptr %37, i32 0, i32 1
  %39 = load i64, ptr %38, align 8
  %40 = load ptr, ptr %9, align 8
  store i64 %39, ptr %40, align 8
  %41 = load ptr, ptr %6, align 8
  %42 = getelementptr inbounds %struct._php_stream, ptr %41, i32 0, i32 7
  %43 = load i16, ptr %42, align 8
  %44 = and i16 %43, -9
  %45 = or i16 %44, 0
  store i16 %45, ptr %42, align 8
  store i32 0, ptr %5, align 4
  br label %142

46:                                               ; preds = %15
  %47 = load ptr, ptr %6, align 8
  %48 = getelementptr inbounds %struct._php_stream, ptr %47, i32 0, i32 7
  %49 = load i16, ptr %48, align 8
  %50 = and i16 %49, -9
  %51 = or i16 %50, 0
  store i16 %51, ptr %48, align 8
  %52 = load ptr, ptr %10, align 8
  %53 = getelementptr inbounds %struct.php_stream_memory_data, ptr %52, i32 0, i32 1
  %54 = load i64, ptr %53, align 8
  %55 = load i64, ptr %7, align 8
  %56 = add i64 %54, %55
  %57 = load ptr, ptr %10, align 8
  %58 = getelementptr inbounds %struct.php_stream_memory_data, ptr %57, i32 0, i32 1
  store i64 %56, ptr %58, align 8
  %59 = load ptr, ptr %10, align 8
  %60 = getelementptr inbounds %struct.php_stream_memory_data, ptr %59, i32 0, i32 1
  %61 = load i64, ptr %60, align 8
  %62 = load ptr, ptr %9, align 8
  store i64 %61, ptr %62, align 8
  store i32 0, ptr %5, align 4
  br label %142

63:                                               ; preds = %4
  %64 = load i64, ptr %7, align 8
  %65 = icmp slt i64 %64, 0
  br i1 %65, label %66, label %70

66:                                               ; preds = %63
  %67 = load ptr, ptr %10, align 8
  %68 = getelementptr inbounds %struct.php_stream_memory_data, ptr %67, i32 0, i32 1
  store i64 0, ptr %68, align 8
  %69 = load ptr, ptr %9, align 8
  store i64 -1, ptr %69, align 8
  store i32 -1, ptr %5, align 4
  br label %142

70:                                               ; preds = %63
  %71 = load i64, ptr %7, align 8
  %72 = load ptr, ptr %10, align 8
  %73 = getelementptr inbounds %struct.php_stream_memory_data, ptr %72, i32 0, i32 1
  store i64 %71, ptr %73, align 8
  %74 = load ptr, ptr %10, align 8
  %75 = getelementptr inbounds %struct.php_stream_memory_data, ptr %74, i32 0, i32 1
  %76 = load i64, ptr %75, align 8
  %77 = load ptr, ptr %9, align 8
  store i64 %76, ptr %77, align 8
  %78 = load ptr, ptr %6, align 8
  %79 = getelementptr inbounds %struct._php_stream, ptr %78, i32 0, i32 7
  %80 = load i16, ptr %79, align 8
  %81 = and i16 %80, -9
  %82 = or i16 %81, 0
  store i16 %82, ptr %79, align 8
  store i32 0, ptr %5, align 4
  br label %142

83:                                               ; preds = %4
  %84 = load i64, ptr %7, align 8
  %85 = icmp sgt i64 %84, 0
  br i1 %85, label %86, label %105

86:                                               ; preds = %83
  %87 = load ptr, ptr %10, align 8
  %88 = getelementptr inbounds %struct.php_stream_memory_data, ptr %87, i32 0, i32 0
  %89 = load ptr, ptr %88, align 8
  %90 = getelementptr inbounds %struct._zend_string, ptr %89, i32 0, i32 2
  %91 = load i64, ptr %90, align 8
  %92 = load i64, ptr %7, align 8
  %93 = add i64 %91, %92
  %94 = load ptr, ptr %10, align 8
  %95 = getelementptr inbounds %struct.php_stream_memory_data, ptr %94, i32 0, i32 1
  store i64 %93, ptr %95, align 8
  %96 = load ptr, ptr %10, align 8
  %97 = getelementptr inbounds %struct.php_stream_memory_data, ptr %96, i32 0, i32 1
  %98 = load i64, ptr %97, align 8
  %99 = load ptr, ptr %9, align 8
  store i64 %98, ptr %99, align 8
  %100 = load ptr, ptr %6, align 8
  %101 = getelementptr inbounds %struct._php_stream, ptr %100, i32 0, i32 7
  %102 = load i16, ptr %101, align 8
  %103 = and i16 %102, -9
  %104 = or i16 %103, 0
  store i16 %104, ptr %101, align 8
  store i32 0, ptr %5, align 4
  br label %142

105:                                              ; preds = %83
  %106 = load ptr, ptr %10, align 8
  %107 = getelementptr inbounds %struct.php_stream_memory_data, ptr %106, i32 0, i32 0
  %108 = load ptr, ptr %107, align 8
  %109 = getelementptr inbounds %struct._zend_string, ptr %108, i32 0, i32 2
  %110 = load i64, ptr %109, align 8
  %111 = load i64, ptr %7, align 8
  %112 = sub nsw i64 0, %111
  %113 = icmp ult i64 %110, %112
  br i1 %113, label %114, label %118

114:                                              ; preds = %105
  %115 = load ptr, ptr %10, align 8
  %116 = getelementptr inbounds %struct.php_stream_memory_data, ptr %115, i32 0, i32 1
  store i64 0, ptr %116, align 8
  %117 = load ptr, ptr %9, align 8
  store i64 -1, ptr %117, align 8
  store i32 -1, ptr %5, align 4
  br label %142

118:                                              ; preds = %105
  %119 = load ptr, ptr %10, align 8
  %120 = getelementptr inbounds %struct.php_stream_memory_data, ptr %119, i32 0, i32 0
  %121 = load ptr, ptr %120, align 8
  %122 = getelementptr inbounds %struct._zend_string, ptr %121, i32 0, i32 2
  %123 = load i64, ptr %122, align 8
  %124 = load i64, ptr %7, align 8
  %125 = add i64 %123, %124
  %126 = load ptr, ptr %10, align 8
  %127 = getelementptr inbounds %struct.php_stream_memory_data, ptr %126, i32 0, i32 1
  store i64 %125, ptr %127, align 8
  %128 = load ptr, ptr %10, align 8
  %129 = getelementptr inbounds %struct.php_stream_memory_data, ptr %128, i32 0, i32 1
  %130 = load i64, ptr %129, align 8
  %131 = load ptr, ptr %9, align 8
  store i64 %130, ptr %131, align 8
  %132 = load ptr, ptr %6, align 8
  %133 = getelementptr inbounds %struct._php_stream, ptr %132, i32 0, i32 7
  %134 = load i16, ptr %133, align 8
  %135 = and i16 %134, -9
  %136 = or i16 %135, 0
  store i16 %136, ptr %133, align 8
  store i32 0, ptr %5, align 4
  br label %142

137:                                              ; preds = %4
  %138 = load ptr, ptr %10, align 8
  %139 = getelementptr inbounds %struct.php_stream_memory_data, ptr %138, i32 0, i32 1
  %140 = load i64, ptr %139, align 8
  %141 = load ptr, ptr %9, align 8
  store i64 %140, ptr %141, align 8
  store i32 -1, ptr %5, align 4
  br label %142

142:                                              ; preds = %137, %118, %114, %86, %70, %66, %46, %29, %25
  %143 = load i32, ptr %5, align 4
  ret i32 %143
}