; Function Attrs: mustprogress nofree norecurse nosync nounwind willreturn memory(readwrite, inaccessiblemem: none) uwtable
define internal noundef i32 @php_stream_memory_seek(ptr nocapture noundef %0, i64 noundef %1, i32 noundef %2, ptr nocapture noundef writeonly %3) #3 {
  %5 = getelementptr inbounds i8, ptr %0, i64 8
  %6 = load ptr, ptr %5, align 8
  switch i32 %2, label %57 [
    i32 1, label %7
    i32 0, label %27
    i32 2, label %35
  ]

7:                                                ; preds = %4
  %8 = icmp slt i64 %1, 0
  br i1 %8, label %9, label %20

9:                                                ; preds = %7
  %10 = getelementptr inbounds i8, ptr %6, i64 8
  %11 = load i64, ptr %10, align 8
  %12 = sub nsw i64 0, %1
  %13 = icmp ult i64 %11, %12
  br i1 %13, label %14, label %15

14:                                               ; preds = %9
  store i64 0, ptr %10, align 8
  store i64 -1, ptr %3, align 8
  br label %60

15:                                               ; preds = %9
  %16 = add i64 %11, %1
  store i64 %16, ptr %10, align 8
  store i64 %16, ptr %3, align 8
  %17 = getelementptr inbounds i8, ptr %0, i64 96
  %18 = load i16, ptr %17, align 8
  %19 = and i16 %18, -9
  store i16 %19, ptr %17, align 8
  br label %60

20:                                               ; preds = %7
  %21 = getelementptr inbounds i8, ptr %0, i64 96
  %22 = load i16, ptr %21, align 8
  %23 = and i16 %22, -9
  store i16 %23, ptr %21, align 8
  %24 = getelementptr inbounds i8, ptr %6, i64 8
  %25 = load i64, ptr %24, align 8
  %26 = add i64 %25, %1
  store i64 %26, ptr %24, align 8
  store i64 %26, ptr %3, align 8
  br label %60

27:                                               ; preds = %4
  %28 = icmp slt i64 %1, 0
  %29 = getelementptr inbounds i8, ptr %6, i64 8
  br i1 %28, label %30, label %31

30:                                               ; preds = %27
  store i64 0, ptr %29, align 8
  store i64 -1, ptr %3, align 8
  br label %60

31:                                               ; preds = %27
  store i64 %1, ptr %29, align 8
  store i64 %1, ptr %3, align 8
  %32 = getelementptr inbounds i8, ptr %0, i64 96
  %33 = load i16, ptr %32, align 8
  %34 = and i16 %33, -9
  store i16 %34, ptr %32, align 8
  br label %60

35:                                               ; preds = %4
  %36 = icmp sgt i64 %1, 0
  %37 = load ptr, ptr %6, align 8
  %38 = getelementptr inbounds i8, ptr %37, i64 16
  %39 = load i64, ptr %38, align 8
  br i1 %36, label %40, label %46

40:                                               ; preds = %35
  %41 = add i64 %39, %1
  %42 = getelementptr inbounds i8, ptr %6, i64 8
  store i64 %41, ptr %42, align 8
  store i64 %41, ptr %3, align 8
  %43 = getelementptr inbounds i8, ptr %0, i64 96
  %44 = load i16, ptr %43, align 8
  %45 = and i16 %44, -9
  store i16 %45, ptr %43, align 8
  br label %60

46:                                               ; preds = %35
  %47 = sub nsw i64 0, %1
  %48 = icmp ult i64 %39, %47
  br i1 %48, label %49, label %51

49:                                               ; preds = %46
  %50 = getelementptr inbounds i8, ptr %6, i64 8
  store i64 0, ptr %50, align 8
  store i64 -1, ptr %3, align 8
  br label %60

51:                                               ; preds = %46
  %52 = add i64 %39, %1
  %53 = getelementptr inbounds i8, ptr %6, i64 8
  store i64 %52, ptr %53, align 8
  store i64 %52, ptr %3, align 8
  %54 = getelementptr inbounds i8, ptr %0, i64 96
  %55 = load i16, ptr %54, align 8
  %56 = and i16 %55, -9
  store i16 %56, ptr %54, align 8
  br label %60

57:                                               ; preds = %4
  %58 = getelementptr inbounds i8, ptr %6, i64 8
  %59 = load i64, ptr %58, align 8
  store i64 %59, ptr %3, align 8
  br label %60

60:                                               ; preds = %57, %51, %49, %40, %31, %30, %20, %15, %14
  %.0 = phi i32 [ -1, %57 ], [ 0, %40 ], [ -1, %49 ], [ 0, %51 ], [ -1, %30 ], [ 0, %31 ], [ -1, %14 ], [ 0, %15 ], [ 0, %20 ]
  ret i32 %.0
}